target datalayout = "e-m:e-p270:32:32-p271:32:32-p272:64:64-i64:64-i128:128-f80:128-n8:16:32:64-S128"
target triple = "x86_64-pc-linux-gnu"

%"class.cv::Mat" = type { i32, i32, i32, i32, ptr, ptr, ptr, ptr, ptr, ptr, %"struct.cv::MatSize", %"struct.cv::MatStep" }
%"struct.cv::MatSize" = type { ptr }
%"struct.cv::MatStep" = type { ptr, [2 x i64] }

; Function Attrs: inlinehint mustprogress nounwind uwtable
define linkonce_odr hidden noundef zeroext i1 @_ZNK2cv3Mat12isContinuousEv(ptr noundef nonnull align 8 dereferenceable(96) %0) #10 comdat align 2 {
  %2 = alloca ptr, align 8
  store ptr %0, ptr %2, align 8, !tbaa !4
  %3 = load ptr, ptr %2, align 8
  %4 = getelementptr inbounds nuw %"class.cv::Mat", ptr %3, i32 0, i32 0
  %5 = load i32, ptr %4, align 8, !tbaa !265
  %6 = and i32 %5, 16384
  %7 = icmp ne i32 %6, 0
  ret i1 %7
}

; Function Attrs: inlinehint mustprogress uwtable
define linkonce_odr hidden noundef nonnull align 8 dereferenceable(8) ptr @_ZN2cv3Mat2atIdEERT_i(ptr noundef nonnull align 8 dereferenceable(96) %0, i32 noundef %1) #8 comdat align 2 {
  %3 = alloca ptr, align 8
  %4 = alloca ptr, align 8
  %5 = alloca i32, align 4
  %6 = alloca i32, align 4
  %7 = alloca i32, align 4
  store ptr %0, ptr %4, align 8, !tbaa !4
  store i32 %1, ptr %5, align 4, !tbaa !16
  %8 = load ptr, ptr %4, align 8
  %9 = call noundef zeroext i1 @_ZNK2cv3Mat12isContinuousEv(ptr noundef nonnull align 8 dereferenceable(96) %8)
  br i1 %9, label %17, label %10

10:                                               ; preds = %2
  %11 = getelementptr inbounds nuw %"class.cv::Mat", ptr %8, i32 0, i32 10
  %12 = getelementptr inbounds nuw %"struct.cv::MatSize", ptr %11, i32 0, i32 0
  %13 = load ptr, ptr %12, align 8, !tbaa !93
  %14 = getelementptr inbounds i32, ptr %13, i64 0
  %15 = load i32, ptr %14, align 4, !tbaa !16
  %16 = icmp eq i32 %15, 1
  br i1 %16, label %17, label %23

17:                                               ; preds = %10, %2
  %18 = getelementptr inbounds nuw %"class.cv::Mat", ptr %8, i32 0, i32 4
  %19 = load ptr, ptr %18, align 8, !tbaa !91
  %20 = load i32, ptr %5, align 4, !tbaa !16
  %21 = sext i32 %20 to i64
  %22 = getelementptr inbounds double, ptr %19, i64 %21
  store ptr %22, ptr %3, align 8
  br label %67

23:                                               ; preds = %10
  %24 = getelementptr inbounds nuw %"class.cv::Mat", ptr %8, i32 0, i32 10
  %25 = getelementptr inbounds nuw %"struct.cv::MatSize", ptr %24, i32 0, i32 0
  %26 = load ptr, ptr %25, align 8, !tbaa !93
  %27 = getelementptr inbounds i32, ptr %26, i64 1
  %28 = load i32, ptr %27, align 4, !tbaa !16
  %29 = icmp eq i32 %28, 1
  br i1 %29, label %30, label %42

30:                                               ; preds = %23
  %31 = getelementptr inbounds nuw %"class.cv::Mat", ptr %8, i32 0, i32 4
  %32 = load ptr, ptr %31, align 8, !tbaa !91
  %33 = getelementptr inbounds nuw %"class.cv::Mat", ptr %8, i32 0, i32 11
  %34 = getelementptr inbounds nuw %"struct.cv::MatStep", ptr %33, i32 0, i32 0
  %35 = load ptr, ptr %34, align 8, !tbaa !92
  %36 = getelementptr inbounds i64, ptr %35, i64 0
  %37 = load i64, ptr %36, align 8, !tbaa !22
  %38 = load i32, ptr %5, align 4, !tbaa !16
  %39 = sext i32 %38 to i64
  %40 = mul i64 %37, %39
  %41 = getelementptr inbounds nuw i8, ptr %32, i64 %40
  store ptr %41, ptr %3, align 8
  br label %67

42:                                               ; preds = %23
  call void @llvm.lifetime.start.p0(i64 4, ptr %6) #3
  %43 = load i32, ptr %5, align 4, !tbaa !16
  %44 = getelementptr inbounds nuw %"class.cv::Mat", ptr %8, i32 0, i32 3
  %45 = load i32, ptr %44, align 4, !tbaa !94
  %46 = sdiv i32 %43, %45
  store i32 %46, ptr %6, align 4, !tbaa !16
  call void @llvm.lifetime.start.p0(i64 4, ptr %7) #3
  %47 = load i32, ptr %5, align 4, !tbaa !16
  %48 = load i32, ptr %6, align 4, !tbaa !16
  %49 = getelementptr inbounds nuw %"class.cv::Mat", ptr %8, i32 0, i32 3
  %50 = load i32, ptr %49, align 4, !tbaa !94
  %51 = mul nsw i32 %48, %50
  %52 = sub nsw i32 %47, %51
  store i32 %52, ptr %7, align 4, !tbaa !16
  %53 = getelementptr inbounds nuw %"class.cv::Mat", ptr %8, i32 0, i32 4
  %54 = load ptr, ptr %53, align 8, !tbaa !91
  %55 = getelementptr inbounds nuw %"class.cv::Mat", ptr %8, i32 0, i32 11
  %56 = getelementptr inbounds nuw %"struct.cv::MatStep", ptr %55, i32 0, i32 0
  %57 = load ptr, ptr %56, align 8, !tbaa !92
  %58 = getelementptr inbounds i64, ptr %57, i64 0
  %59 = load i64, ptr %58, align 8, !tbaa !22
  %60 = load i32, ptr %6, align 4, !tbaa !16
  %61 = sext i32 %60 to i64
  %62 = mul i64 %59, %61
  %63 = getelementptr inbounds nuw i8, ptr %54, i64 %62
  %64 = load i32, ptr %7, align 4, !tbaa !16
  %65 = sext i32 %64 to i64
  %66 = getelementptr inbounds double, ptr %63, i64 %65
  store ptr %66, ptr %3, align 8
  call void @llvm.lifetime.end.p0(i64 4, ptr %7) #3
  call void @llvm.lifetime.end.p0(i64 4, ptr %6) #3
  br label %67

67:                                               ; preds = %42, %30, %17
  %68 = load ptr, ptr %3, align 8
  ret ptr %68
}

; Function Attrs: inlinehint mustprogress nounwind uwtable
define linkonce_odr hidden noundef nonnull align 8 dereferenceable(8) ptr @_ZNK2cv3Mat2atIdEERKT_ii(ptr noundef nonnull align 8 dereferenceable(96) %0, i32 noundef %1, i32 noundef %2) #10 comdat align 2 {
  %4 = alloca ptr, align 8
  %5 = alloca i32, align 4
  %6 = alloca i32, align 4
  store ptr %0, ptr %4, align 8, !tbaa !4
  store i32 %1, ptr %5, align 4, !tbaa !16
  store i32 %2, ptr %6, align 4, !tbaa !16
  %7 = load ptr, ptr %4, align 8
  %8 = getelementptr inbounds nuw %"class.cv::Mat", ptr %7, i32 0, i32 4
  %9 = load ptr, ptr %8, align 8, !tbaa !91
  %10 = getelementptr inbounds nuw %"class.cv::Mat", ptr %7, i32 0, i32 11
  %11 = getelementptr inbounds nuw %"struct.cv::MatStep", ptr %10, i32 0, i32 0
  %12 = load ptr, ptr %11, align 8, !tbaa !92
  %13 = getelementptr inbounds i64, ptr %12, i64 0
  %14 = load i64, ptr %13, align 8, !tbaa !22
  %15 = load i32, ptr %5, align 4, !tbaa !16
  %16 = sext i32 %15 to i64
  %17 = mul i64 %14, %16
  %18 = getelementptr inbounds nuw i8, ptr %9, i64 %17
  %19 = load i32, ptr %6, align 4, !tbaa !16
  %20 = sext i32 %19 to i64
  %21 = getelementptr inbounds double, ptr %18, i64 %20
  ret ptr %21
}

; Function Attrs: mustprogress uwtable
define hidden void @_Z9rot2eulerRKN2cv3MatE(ptr dead_on_unwind noalias writable sret(%"class.cv::Mat") align 8 %0, ptr noundef nonnull align 8 dereferenceable(96) %1) #7 personality ptr @__gxx_personality_v0 {
  %3 = alloca ptr, align 8
  %4 = alloca ptr, align 8
  %5 = alloca i1, align 1
  %6 = alloca double, align 8
  %7 = alloca ptr, align 8
  %8 = alloca i32, align 4
  %9 = alloca double, align 8
  %10 = alloca double, align 8
  %11 = alloca double, align 8
  %12 = alloca double, align 8
  %13 = alloca double, align 8
  %14 = alloca double, align 8
  %15 = alloca double, align 8
  %16 = alloca double, align 8
  %17 = alloca double, align 8
  store ptr %0, ptr %3, align 8
  store ptr %1, ptr %4, align 8, !tbaa !4
  store i1 false, ptr %5, align 1
  call void @_ZN2cv3MatC1Eiii(ptr noundef nonnull align 8 dereferenceable(96) %0, i32 noundef 3, i32 noundef 1, i32 noundef 6)
  call void @llvm.lifetime.start.p0(i64 8, ptr %6) #3
  %18 = load ptr, ptr %4, align 8, !tbaa !4
  %19 = invoke noundef nonnull align 8 dereferenceable(8) ptr @_ZNK2cv3Mat2atIdEERKT_ii(ptr noundef nonnull align 8 dereferenceable(96) %18, i32 noundef 0, i32 noundef 0)
          to label %20 unwind label %52

20:                                               ; preds = %2
  %21 = load double, ptr %19, align 8, !tbaa !31
  store double %21, ptr %6, align 8, !tbaa !31
  call void @llvm.lifetime.start.p0(i64 8, ptr %9) #3
  %22 = load ptr, ptr %4, align 8, !tbaa !4
  %23 = invoke noundef nonnull align 8 dereferenceable(8) ptr @_ZNK2cv3Mat2atIdEERKT_ii(ptr noundef nonnull align 8 dereferenceable(96) %22, i32 noundef 0, i32 noundef 2)
          to label %24 unwind label %56

24:                                               ; preds = %20
  %25 = load double, ptr %23, align 8, !tbaa !31
  store double %25, ptr %9, align 8, !tbaa !31
  call void @llvm.lifetime.start.p0(i64 8, ptr %10) #3
  %26 = load ptr, ptr %4, align 8, !tbaa !4
  %27 = invoke noundef nonnull align 8 dereferenceable(8) ptr @_ZNK2cv3Mat2atIdEERKT_ii(ptr noundef nonnull align 8 dereferenceable(96) %26, i32 noundef 1, i32 noundef 0)
          to label %28 unwind label %60

28:                                               ; preds = %24
  %29 = load double, ptr %27, align 8, !tbaa !31
  store double %29, ptr %10, align 8, !tbaa !31
  call void @llvm.lifetime.start.p0(i64 8, ptr %11) #3
  %30 = load ptr, ptr %4, align 8, !tbaa !4
  %31 = invoke noundef nonnull align 8 dereferenceable(8) ptr @_ZNK2cv3Mat2atIdEERKT_ii(ptr noundef nonnull align 8 dereferenceable(96) %30, i32 noundef 1, i32 noundef 1)
          to label %32 unwind label %64

32:                                               ; preds = %28
  %33 = load double, ptr %31, align 8, !tbaa !31
  store double %33, ptr %11, align 8, !tbaa !31
  call void @llvm.lifetime.start.p0(i64 8, ptr %12) #3
  %34 = load ptr, ptr %4, align 8, !tbaa !4
  %35 = invoke noundef nonnull align 8 dereferenceable(8) ptr @_ZNK2cv3Mat2atIdEERKT_ii(ptr noundef nonnull align 8 dereferenceable(96) %34, i32 noundef 1, i32 noundef 2)
          to label %36 unwind label %68

36:                                               ; preds = %32
  %37 = load double, ptr %35, align 8, !tbaa !31
  store double %37, ptr %12, align 8, !tbaa !31
  call void @llvm.lifetime.start.p0(i64 8, ptr %13) #3
  %38 = load ptr, ptr %4, align 8, !tbaa !4
  %39 = invoke noundef nonnull align 8 dereferenceable(8) ptr @_ZNK2cv3Mat2atIdEERKT_ii(ptr noundef nonnull align 8 dereferenceable(96) %38, i32 noundef 2, i32 noundef 0)
          to label %40 unwind label %72

40:                                               ; preds = %36
  %41 = load double, ptr %39, align 8, !tbaa !31
  store double %41, ptr %13, align 8, !tbaa !31
  call void @llvm.lifetime.start.p0(i64 8, ptr %14) #3
  %42 = load ptr, ptr %4, align 8, !tbaa !4
  %43 = invoke noundef nonnull align 8 dereferenceable(8) ptr @_ZNK2cv3Mat2atIdEERKT_ii(ptr noundef nonnull align 8 dereferenceable(96) %42, i32 noundef 2, i32 noundef 2)
          to label %44 unwind label %76

44:                                               ; preds = %40
  %45 = load double, ptr %43, align 8, !tbaa !31
  store double %45, ptr %14, align 8, !tbaa !31
  call void @llvm.lifetime.start.p0(i64 8, ptr %15) #3
  call void @llvm.lifetime.start.p0(i64 8, ptr %16) #3
  call void @llvm.lifetime.start.p0(i64 8, ptr %17) #3
  %46 = load double, ptr %10, align 8, !tbaa !31
  %47 = fcmp ogt double %46, 0x3FEFEF9DB22D0E56
  br i1 %47, label %48, label %80

48:                                               ; preds = %44
  store double 0.000000e+00, ptr %15, align 8, !tbaa !31
  store double 0x3FF921FB54442D18, ptr %16, align 8, !tbaa !31
  %49 = load double, ptr %9, align 8, !tbaa !31
  %50 = load double, ptr %14, align 8, !tbaa !31
  %51 = call double @atan2(double noundef %49, double noundef %50) #3, !tbaa !16
  store double %51, ptr %17, align 8, !tbaa !31
  br label %99

52:                                               ; preds = %2
  %53 = landingpad { ptr, i32 }
          cleanup
  %54 = extractvalue { ptr, i32 } %53, 0
  store ptr %54, ptr %7, align 8
  %55 = extractvalue { ptr, i32 } %53, 1
  store i32 %55, ptr %8, align 4
  br label %120

56:                                               ; preds = %20
  %57 = landingpad { ptr, i32 }
          cleanup
  %58 = extractvalue { ptr, i32 } %57, 0
  store ptr %58, ptr %7, align 8
  %59 = extractvalue { ptr, i32 } %57, 1
  store i32 %59, ptr %8, align 4
  br label %119

60:                                               ; preds = %24
  %61 = landingpad { ptr, i32 }
          cleanup
  %62 = extractvalue { ptr, i32 } %61, 0
  store ptr %62, ptr %7, align 8
  %63 = extractvalue { ptr, i32 } %61, 1
  store i32 %63, ptr %8, align 4
  br label %118

64:                                               ; preds = %28
  %65 = landingpad { ptr, i32 }
          cleanup
  %66 = extractvalue { ptr, i32 } %65, 0
  store ptr %66, ptr %7, align 8
  %67 = extractvalue { ptr, i32 } %65, 1
  store i32 %67, ptr %8, align 4
  br label %117

68:                                               ; preds = %32
  %69 = landingpad { ptr, i32 }
          cleanup
  %70 = extractvalue { ptr, i32 } %69, 0
  store ptr %70, ptr %7, align 8
  %71 = extractvalue { ptr, i32 } %69, 1
  store i32 %71, ptr %8, align 4
  br label %116

72:                                               ; preds = %36
  %73 = landingpad { ptr, i32 }
          cleanup
  %74 = extractvalue { ptr, i32 } %73, 0
  store ptr %74, ptr %7, align 8
  %75 = extractvalue { ptr, i32 } %73, 1
  store i32 %75, ptr %8, align 4
  br label %115

76:                                               ; preds = %40
  %77 = landingpad { ptr, i32 }
          cleanup
  %78 = extractvalue { ptr, i32 } %77, 0
  store ptr %78, ptr %7, align 8
  %79 = extractvalue { ptr, i32 } %77, 1
  store i32 %79, ptr %8, align 4
  br label %114

80:                                               ; preds = %44
  %81 = load double, ptr %10, align 8, !tbaa !31
  %82 = fcmp olt double %81, 0xBFEFEF9DB22D0E56
  br i1 %82, label %83, label %87

83:                                               ; preds = %80
  store double 0.000000e+00, ptr %15, align 8, !tbaa !31
  store double 0xBFF921FB54442D18, ptr %16, align 8, !tbaa !31
  %84 = load double, ptr %9, align 8, !tbaa !31
  %85 = load double, ptr %14, align 8, !tbaa !31
  %86 = call double @atan2(double noundef %84, double noundef %85) #3, !tbaa !16
  store double %86, ptr %17, align 8, !tbaa !31
  br label %98

87:                                               ; preds = %80
  %88 = load double, ptr %12, align 8, !tbaa !31
  %89 = fneg double %88
  %90 = load double, ptr %11, align 8, !tbaa !31
  %91 = call double @atan2(double noundef %89, double noundef %90) #3, !tbaa !16
  store double %91, ptr %15, align 8, !tbaa !31
  %92 = load double, ptr %10, align 8, !tbaa !31
  %93 = call double @asin(double noundef %92) #3, !tbaa !16
  store double %93, ptr %16, align 8, !tbaa !31
  %94 = load double, ptr %13, align 8, !tbaa !31
  %95 = fneg double %94
  %96 = load double, ptr %6, align 8, !tbaa !31
  %97 = call double @atan2(double noundef %95, double noundef %96) #3, !tbaa !16
  store double %97, ptr %17, align 8, !tbaa !31
  br label %98

98:                                               ; preds = %87, %83
  br label %99

99:                                               ; preds = %98, %48
  %100 = load double, ptr %15, align 8, !tbaa !31
  %101 = invoke noundef nonnull align 8 dereferenceable(8) ptr @_ZN2cv3Mat2atIdEERT_i(ptr noundef nonnull align 8 dereferenceable(96) %0, i32 noundef 0)
          to label %102 unwind label %110

102:                                              ; preds = %99
  store double %100, ptr %101, align 8, !tbaa !31
  %103 = load double, ptr %16, align 8, !tbaa !31
  %104 = invoke noundef nonnull align 8 dereferenceable(8) ptr @_ZN2cv3Mat2atIdEERT_i(ptr noundef nonnull align 8 dereferenceable(96) %0, i32 noundef 1)
          to label %105 unwind label %110

105:                                              ; preds = %102
  store double %103, ptr %104, align 8, !tbaa !31
  %106 = load double, ptr %17, align 8, !tbaa !31
  %107 = invoke noundef nonnull align 8 dereferenceable(8) ptr @_ZN2cv3Mat2atIdEERT_i(ptr noundef nonnull align 8 dereferenceable(96) %0, i32 noundef 2)
          to label %108 unwind label %110

108:                                              ; preds = %105
  store double %106, ptr %107, align 8, !tbaa !31
  store i1 true, ptr %5, align 1
  call void @llvm.lifetime.end.p0(i64 8, ptr %17) #3
  call void @llvm.lifetime.end.p0(i64 8, ptr %16) #3
  call void @llvm.lifetime.end.p0(i64 8, ptr %15) #3
  call void @llvm.lifetime.end.p0(i64 8, ptr %14) #3
  call void @llvm.lifetime.end.p0(i64 8, ptr %13) #3
  call void @llvm.lifetime.end.p0(i64 8, ptr %12) #3
  call void @llvm.lifetime.end.p0(i64 8, ptr %11) #3
  call void @llvm.lifetime.end.p0(i64 8, ptr %10) #3
  call void @llvm.lifetime.end.p0(i64 8, ptr %9) #3
  call void @llvm.lifetime.end.p0(i64 8, ptr %6) #3
  %109 = load i1, ptr %5, align 1
  br i1 %109, label %122, label %121

110:                                              ; preds = %105, %102, %99
  %111 = landingpad { ptr, i32 }
          cleanup
  %112 = extractvalue { ptr, i32 } %111, 0
  store ptr %112, ptr %7, align 8
  %113 = extractvalue { ptr, i32 } %111, 1
  store i32 %113, ptr %8, align 4
  call void @llvm.lifetime.end.p0(i64 8, ptr %17) #3
  call void @llvm.lifetime.end.p0(i64 8, ptr %16) #3
  call void @llvm.lifetime.end.p0(i64 8, ptr %15) #3
  br label %114

114:                                              ; preds = %110, %76
  call void @llvm.lifetime.end.p0(i64 8, ptr %14) #3
  br label %115

115:                                              ; preds = %114, %72
  call void @llvm.lifetime.end.p0(i64 8, ptr %13) #3
  br label %116

116:                                              ; preds = %115, %68
  call void @llvm.lifetime.end.p0(i64 8, ptr %12) #3
  br label %117

117:                                              ; preds = %116, %64
  call void @llvm.lifetime.end.p0(i64 8, ptr %11) #3
  br label %118

118:                                              ; preds = %117, %60
  call void @llvm.lifetime.end.p0(i64 8, ptr %10) #3
  br label %119

119:                                              ; preds = %118, %56
  call void @llvm.lifetime.end.p0(i64 8, ptr %9) #3
  br label %120

120:                                              ; preds = %119, %52
  call void @llvm.lifetime.end.p0(i64 8, ptr %6) #3
  call void @_ZN2cv3MatD1Ev(ptr noundef nonnull align 8 dereferenceable(96) %0) #3
  br label %123

121:                                              ; preds = %108
  call void @_ZN2cv3MatD1Ev(ptr noundef nonnull align 8 dereferenceable(96) %0) #3
  br label %122

122:                                              ; preds = %121, %108
  ret void

123:                                              ; preds = %120
  %124 = load ptr, ptr %7, align 8
  %125 = load i32, ptr %8, align 4
  %126 = insertvalue { ptr, i32 } poison, ptr %124, 0
  %127 = insertvalue { ptr, i32 } %126, i32 %125, 1
  resume { ptr, i32 } %127
}