; Function Attrs: mustprogress uwtable
define hidden void @_Z9rot2eulerRKN2cv3MatE(ptr dead_on_unwind noalias nonnull writable sret(%"class.cv::Mat") align 8 %0, ptr noundef nonnull readonly align 8 captures(none) dereferenceable(96) %1) local_unnamed_addr #6 personality ptr @__gxx_personality_v0 {
  tail call void @_ZN2cv3MatC1Eiii(ptr noundef nonnull align 8 dereferenceable(96) %0, i32 noundef 3, i32 noundef 1, i32 noundef 6)
  %3 = getelementptr inbounds nuw i8, ptr %1, i64 16
  %4 = load ptr, ptr %3, align 8, !tbaa !131
  %5 = getelementptr inbounds nuw i8, ptr %1, i64 72
  %6 = load ptr, ptr %5, align 8, !tbaa !132
  %7 = load double, ptr %4, align 8, !tbaa !35
  %8 = getelementptr inbounds nuw i8, ptr %4, i64 16
  %9 = load double, ptr %8, align 8, !tbaa !35
  %10 = load i64, ptr %6, align 8, !tbaa !54
  %11 = getelementptr inbounds nuw i8, ptr %4, i64 %10
  %12 = load double, ptr %11, align 8, !tbaa !35
  %13 = getelementptr inbounds nuw i8, ptr %11, i64 8
  %14 = load double, ptr %13, align 8, !tbaa !35
  %15 = getelementptr inbounds nuw i8, ptr %11, i64 16
  %16 = load double, ptr %15, align 8, !tbaa !35
  %17 = shl i64 %10, 1
  %18 = getelementptr inbounds nuw i8, ptr %4, i64 %17
  %19 = load double, ptr %18, align 8, !tbaa !35
  %20 = getelementptr inbounds nuw i8, ptr %18, i64 16
  %21 = load double, ptr %20, align 8, !tbaa !35
  %22 = fcmp ogt double %12, 0x3FEFEF9DB22D0E56
  br i1 %22, label %23, label %25

23:                                               ; preds = %2
  %24 = tail call double @atan2(double noundef %9, double noundef %21) #25, !tbaa !97
  br label %35

25:                                               ; preds = %2
  %26 = fcmp olt double %12, 0xBFEFEF9DB22D0E56
  br i1 %26, label %27, label %29

27:                                               ; preds = %25
  %28 = tail call double @atan2(double noundef %9, double noundef %21) #25, !tbaa !97
  br label %35

29:                                               ; preds = %25
  %30 = fneg double %16
  %31 = tail call double @atan2(double noundef %30, double noundef %14) #25, !tbaa !97
  %32 = tail call double @asin(double noundef %12) #25, !tbaa !97
  %33 = fneg double %19
  %34 = tail call double @atan2(double noundef %33, double noundef %7) #25, !tbaa !97
  br label %35

35:                                               ; preds = %27, %29, %23
  %.024 = phi double [ 0.000000e+00, %23 ], [ 0.000000e+00, %27 ], [ %31, %29 ]
  %.023 = phi double [ 0x3FF921FB54442D18, %23 ], [ 0xBFF921FB54442D18, %27 ], [ %32, %29 ]
  %.0 = phi double [ %24, %23 ], [ %28, %27 ], [ %34, %29 ]
  %36 = load i32, ptr %0, align 8, !tbaa !133
  %37 = and i32 %36, 16384
  %.not.i = icmp eq i32 %37, 0
  br i1 %.not.i, label %38, label %_ZN2cv3Mat2atIdEERT_i.exit28

38:                                               ; preds = %35
  %39 = getelementptr inbounds nuw i8, ptr %0, i64 64
  %40 = load ptr, ptr %39, align 8, !tbaa !134
  %41 = load i32, ptr %40, align 4, !tbaa !97
  %42 = icmp eq i32 %41, 1
  %43 = getelementptr inbounds nuw i8, ptr %0, i64 16
  %44 = load ptr, ptr %43, align 8, !tbaa !131
  store double %.024, ptr %44, align 8, !tbaa !35
  br i1 %42, label %.thread36, label %45

45:                                               ; preds = %38
  %46 = getelementptr inbounds nuw i8, ptr %40, i64 4
  %47 = load i32, ptr %46, align 4, !tbaa !97
  %48 = icmp eq i32 %47, 1
  br i1 %48, label %49, label %54

49:                                               ; preds = %45
  %50 = getelementptr inbounds nuw i8, ptr %0, i64 72
  %51 = load ptr, ptr %50, align 8, !tbaa !132
  %52 = load i64, ptr %51, align 8, !tbaa !54
  %53 = getelementptr inbounds nuw i8, ptr %44, i64 %52
  br label %74

54:                                               ; preds = %45
  %55 = getelementptr inbounds nuw i8, ptr %0, i64 12
  %56 = load i32, ptr %55, align 4, !tbaa !135
  %.fr = freeze i32 %56
  %57 = add i32 %.fr, 1
  %58 = icmp ult i32 %57, 3
  %59 = select i1 %58, i32 %.fr, i32 0
  %60 = mul nsw i32 %59, %.fr
  %61 = sub nsw i32 1, %60
  %62 = getelementptr inbounds nuw i8, ptr %0, i64 72
  %63 = load ptr, ptr %62, align 8, !tbaa !132
  %64 = load i64, ptr %63, align 8, !tbaa !54
  %65 = sext i32 %59 to i64
  %66 = mul i64 %64, %65
  %67 = getelementptr inbounds nuw i8, ptr %44, i64 %66
  %68 = sext i32 %61 to i64
  %69 = getelementptr inbounds double, ptr %67, i64 %68
  br label %74

_ZN2cv3Mat2atIdEERT_i.exit28:                     ; preds = %35
  %70 = getelementptr inbounds nuw i8, ptr %0, i64 16
  %71 = load ptr, ptr %70, align 8, !tbaa !131
  store double %.024, ptr %71, align 8, !tbaa !35
  br label %.thread36

.thread36:                                        ; preds = %38, %_ZN2cv3Mat2atIdEERT_i.exit28
  %.sink37 = phi ptr [ %71, %_ZN2cv3Mat2atIdEERT_i.exit28 ], [ %44, %38 ]
  %72 = getelementptr inbounds nuw i8, ptr %.sink37, i64 8
  store double %.023, ptr %72, align 8, !tbaa !35
  %73 = getelementptr inbounds nuw i8, ptr %.sink37, i64 16
  br label %_ZN2cv3Mat2atIdEERT_i.exit31

74:                                               ; preds = %54, %49
  %.0.i27.ph = phi ptr [ %69, %54 ], [ %53, %49 ]
  store double %.023, ptr %.0.i27.ph, align 8, !tbaa !35
  %75 = getelementptr inbounds nuw i8, ptr %40, i64 4
  %76 = load i32, ptr %75, align 4, !tbaa !97
  %77 = icmp eq i32 %76, 1
  br i1 %77, label %78, label %84

78:                                               ; preds = %74
  %79 = getelementptr inbounds nuw i8, ptr %0, i64 72
  %80 = load ptr, ptr %79, align 8, !tbaa !132
  %81 = load i64, ptr %80, align 8, !tbaa !54
  %82 = shl i64 %81, 1
  %83 = getelementptr inbounds nuw i8, ptr %44, i64 %82
  br label %_ZN2cv3Mat2atIdEERT_i.exit31

84:                                               ; preds = %74
  %85 = getelementptr inbounds nuw i8, ptr %0, i64 12
  %86 = load i32, ptr %85, align 4, !tbaa !135
  %87 = sdiv i32 2, %86
  %88 = mul nsw i32 %87, %86
  %.recomposed = srem i32 2, %86
  %89 = getelementptr inbounds nuw i8, ptr %0, i64 72
  %90 = load ptr, ptr %89, align 8, !tbaa !132
  %91 = load i64, ptr %90, align 8, !tbaa !54
  %92 = sext i32 %87 to i64
  %93 = mul i64 %91, %92
  %94 = getelementptr inbounds nuw i8, ptr %44, i64 %93
  %95 = sext i32 %.recomposed to i64
  %96 = getelementptr inbounds double, ptr %94, i64 %95
  br label %_ZN2cv3Mat2atIdEERT_i.exit31

_ZN2cv3Mat2atIdEERT_i.exit31:                     ; preds = %84, %78, %.thread36
  %.0.i30 = phi ptr [ %73, %.thread36 ], [ %83, %78 ], [ %96, %84 ]
  store double %.0, ptr %.0.i30, align 8, !tbaa !35
  ret void
}